target datalayout = "e-m:e-p270:32:32-p271:32:32-p272:64:64-i64:64-i128:128-f80:128-n8:16:32:64-S128"
target triple = "x86_64-pc-linux-gnu"

%struct.jpeg_compress_struct = type { ptr, ptr, ptr, ptr, i32, i32, ptr, i32, i32, i32, i32, double, i32, i32, i32, ptr, [4 x ptr], [4 x ptr], [4 x ptr], [16 x i8], [16 x i8], [16 x i8], i32, ptr, i32, i32, i32, i32, i32, i32, i32, i32, i32, i8, i8, i8, i16, i16, i32, i32, i32, i32, i32, i32, i32, [4 x ptr], i32, i32, i32, [10 x i32], i32, i32, i32, i32, ptr, ptr, ptr, ptr, ptr, ptr, ptr, ptr, ptr, ptr, i32 }
%struct.jpeg_comp_master = type { ptr, ptr, ptr, i32, i32, i32 }
%struct.jpeg_marker_writer = type { ptr, ptr, ptr, ptr, ptr, ptr, ptr }

; Function Attrs: nounwind uwtable
define internal void @pass_startup(ptr noundef %0) #0 {
  %2 = alloca ptr, align 8
  store ptr %0, ptr %2, align 8, !tbaa !3
  %3 = load ptr, ptr %2, align 8, !tbaa !3
  %4 = getelementptr inbounds nuw %struct.jpeg_compress_struct, ptr %3, i32 0, i32 54
  %5 = load ptr, ptr %4, align 8, !tbaa !10
  %6 = getelementptr inbounds nuw %struct.jpeg_comp_master, ptr %5, i32 0, i32 3
  store i32 0, ptr %6, align 8, !tbaa !95
  %7 = load ptr, ptr %2, align 8, !tbaa !3
  %8 = getelementptr inbounds nuw %struct.jpeg_compress_struct, ptr %7, i32 0, i32 58
  %9 = load ptr, ptr %8, align 8, !tbaa !81
  %10 = getelementptr inbounds nuw %struct.jpeg_marker_writer, ptr %9, i32 0, i32 1
  %11 = load ptr, ptr %10, align 8, !tbaa !82
  %12 = load ptr, ptr %2, align 8, !tbaa !3
  call void %11(ptr noundef %12)
  %13 = load ptr, ptr %2, align 8, !tbaa !3
  %14 = getelementptr inbounds nuw %struct.jpeg_compress_struct, ptr %13, i32 0, i32 58
  %15 = load ptr, ptr %14, align 8, !tbaa !81
  %16 = getelementptr inbounds nuw %struct.jpeg_marker_writer, ptr %15, i32 0, i32 2
  %17 = load ptr, ptr %16, align 8, !tbaa !84
  %18 = load ptr, ptr %2, align 8, !tbaa !3
  call void %17(ptr noundef %18)
  ret void
}