; Function Attrs: nounwind uwtable
define internal void @pass_startup(ptr noundef %0) #0 {
  %2 = getelementptr inbounds nuw i8, ptr %0, i64 432
  %3 = load ptr, ptr %2, align 8, !tbaa !3
  %4 = getelementptr inbounds nuw i8, ptr %3, i64 24
  store i32 0, ptr %4, align 8, !tbaa !128
  %5 = getelementptr inbounds nuw i8, ptr %0, i64 464
  %6 = load ptr, ptr %5, align 8, !tbaa !120
  %7 = getelementptr inbounds nuw i8, ptr %6, i64 8
  %8 = load ptr, ptr %7, align 8, !tbaa !121
  tail call void %8(ptr noundef %0) #6
  %9 = load ptr, ptr %5, align 8, !tbaa !120
  %10 = getelementptr inbounds nuw i8, ptr %9, i64 16
  %11 = load ptr, ptr %10, align 8, !tbaa !123
  tail call void %11(ptr noundef %0) #6
  ret void
}